; Function Attrs: mustprogress nounwind uwtable
define hidden void @_ZN11FileMapInfo19align_file_positionEv(ptr nocapture noundef nonnull align 8 dereferenceable(40) %0) local_unnamed_addr #0 align 2 {
  %2 = alloca i8, align 1
  %3 = getelementptr inbounds i8, ptr %0, i64 8
  %4 = load i64, ptr %3, align 8
  %5 = tail call noundef i64 @_ZN15MetaspaceShared21core_region_alignmentEv() #25
  %6 = add i64 %4, -1
  %7 = add i64 %6, %5
  %8 = sub i64 0, %5
  %9 = and i64 %7, %8
  %10 = load i64, ptr %3, align 8
  %.not = icmp eq i64 %9, %10
  br i1 %.not, label %38, label %11

11:                                               ; preds = %1
  %12 = add i64 %9, -1
  store i64 %12, ptr %3, align 8
  %13 = getelementptr inbounds i8, ptr %0, i64 4
  %14 = load i32, ptr %13, align 4
  %15 = tail call noundef i64 @_ZN2os5lseekEili(i32 noundef %14, i64 noundef %12, i32 noundef 0) #25
  %16 = icmp slt i64 %15, 0
  br i1 %16, label %17, label %_ZN11FileMapInfo16seek_to_positionEm.exit

17:                                               ; preds = %11
  %18 = load volatile ptr, ptr getelementptr inbounds (i8, ptr @_ZN16LogTagSetMappingILN6LogTag4typeE14ELS1_0ELS1_0ELS1_0ELS1_0ELS1_0EE7_tagsetE, i64 80), align 8
  %.not.i = icmp eq ptr %18, null
  br i1 %.not.i, label %20, label %19

19:                                               ; preds = %17
  tail call void (ptr, ...) @_ZN7LogImplILN6LogTag4typeE14ELS1_0ELS1_0ELS1_0ELS1_0ELS1_0EE5writeILN8LogLevel4typeE5EEEvPKcz(ptr noundef nonnull @.str.105, i64 noundef %12)
  br label %20

20:                                               ; preds = %19, %17
  tail call void @_ZN15MetaspaceShared27unrecoverable_loading_errorEPKc(ptr noundef null) #25
  br label %_ZN11FileMapInfo16seek_to_positionEm.exit

_ZN11FileMapInfo16seek_to_positionEm.exit:        ; preds = %11, %20
  store i8 0, ptr %2, align 1
  %21 = load i32, ptr %13, align 4
  %22 = call noundef zeroext i1 @_ZN2os5writeEiPKvm(i32 noundef %21, ptr noundef nonnull %2, i64 noundef 1) #25
  br i1 %22, label %_ZN11FileMapInfo11write_bytesEPKvm.exit, label %23

23:                                               ; preds = %_ZN11FileMapInfo16seek_to_positionEm.exit
  %24 = getelementptr inbounds i8, ptr %0, i64 1
  %25 = load i8, ptr %24, align 1
  %26 = trunc i8 %25 to i1
  br i1 %26, label %27, label %_ZN11FileMapInfo5closeEv.exit.i

27:                                               ; preds = %23
  %28 = load i32, ptr %13, align 4
  %29 = call i32 @close(i32 noundef %28) #25
  %30 = icmp slt i32 %29, 0
  br i1 %30, label %31, label %32

31:                                               ; preds = %27
  call void @_ZN15MetaspaceShared27unrecoverable_loading_errorEPKc(ptr noundef nonnull @.str.133) #25
  br label %32

32:                                               ; preds = %31, %27
  store i8 0, ptr %24, align 1
  store i32 -1, ptr %13, align 4
  br label %_ZN11FileMapInfo5closeEv.exit.i

_ZN11FileMapInfo5closeEv.exit.i:                  ; preds = %32, %23
  %33 = getelementptr inbounds i8, ptr %0, i64 16
  %34 = load ptr, ptr %33, align 8
  %35 = call i32 @remove(ptr noundef %34) #25
  call void @_ZN15MetaspaceShared13writing_errorEPKc(ptr noundef nonnull @.str.132) #25
  br label %_ZN11FileMapInfo11write_bytesEPKvm.exit

_ZN11FileMapInfo11write_bytesEPKvm.exit:          ; preds = %_ZN11FileMapInfo16seek_to_positionEm.exit, %_ZN11FileMapInfo5closeEv.exit.i
  %36 = load i64, ptr %3, align 8
  %37 = add i64 %36, 1
  store i64 %37, ptr %3, align 8
  br label %38

38:                                               ; preds = %_ZN11FileMapInfo11write_bytesEPKvm.exit, %1
  ret void
}